target datalayout = "e-m:e-p270:32:32-p271:32:32-p272:64:64-i64:64-i128:128-f80:128-n8:16:32:64-S128"
target triple = "x86_64-pc-linux-gnu"

%struct.H5F_t = type { ptr, ptr, ptr, ptr, i32, ptr, i8, i8, ptr, i32 }

@.str = private unnamed_addr constant [109 x i8] c"generated/home/dtcxzyw/WorkSpace/Projects/compilers/llvm-opt-benchmark/bench/hdf5/hdf5/src/H5VLnative_file.c\00", align 1
@H5E_FILE_g = external global i64, align 8
@H5E_CANTOPENFILE_g = external global i64, align 8
@H5E_CANTCLOSEFILE_g = external global i64, align 8
@.str.2 = private unnamed_addr constant [22 x i8] c"problems closing file\00", align 1
@H5P_LST_FILE_CREATE_ID_g = external global i64, align 8
@__func__.H5VL__native_file_open = private unnamed_addr constant [23 x i8] c"H5VL__native_file_open\00", align 1
@.str.3 = private unnamed_addr constant [20 x i8] c"unable to open file\00", align 1

; Function Attrs: nounwind uwtable
define ptr @H5VL__native_file_open(ptr noundef %0, i32 noundef %1, i64 noundef %2, i64 noundef %3, ptr noundef %4) #0 {
  %6 = alloca ptr, align 8
  %7 = alloca i32, align 4
  %8 = alloca i64, align 8
  %9 = alloca i64, align 8
  %10 = alloca ptr, align 8
  %11 = alloca ptr, align 8
  %12 = alloca ptr, align 8
  %13 = alloca i8, align 1
  store ptr %0, ptr %6, align 8, !tbaa !3
  store i32 %1, ptr %7, align 4, !tbaa !8
  store i64 %2, ptr %8, align 8, !tbaa !10
  store i64 %3, ptr %9, align 8, !tbaa !10
  store ptr %4, ptr %10, align 8, !tbaa !12
  call void @llvm.lifetime.start.p0(i64 8, ptr %11) #5
  store ptr null, ptr %11, align 8, !tbaa !13
  call void @llvm.lifetime.start.p0(i64 8, ptr %12) #5
  store ptr null, ptr %12, align 8, !tbaa !12
  call void @llvm.lifetime.start.p0(i64 1, ptr %13) #5
  store i8 0, ptr %13, align 1, !tbaa !15
  %14 = load ptr, ptr %6, align 8, !tbaa !3
  %15 = load i32, ptr %7, align 4, !tbaa !8
  %16 = load i64, ptr @H5P_LST_FILE_CREATE_ID_g, align 8, !tbaa !10
  %17 = load i64, ptr %8, align 8, !tbaa !10
  %18 = call i32 @H5F_open(i1 noundef zeroext false, ptr noundef %11, ptr noundef %14, i32 noundef %15, i64 noundef %16, i64 noundef %17)
  %19 = icmp slt i32 %18, 0
  br i1 %19, label %20, label %39

20:                                               ; preds = %5
  br label %21

21:                                               ; preds = %20
  br label %22

22:                                               ; preds = %21
  br label %23

23:                                               ; preds = %22
  %24 = load i64, ptr @H5E_FILE_g, align 8, !tbaa !10
  %25 = load i64, ptr @H5E_CANTOPENFILE_g, align 8, !tbaa !10
  %26 = call i32 (ptr, ptr, i32, i64, i64, ptr, ...) @H5E_printf_stack(ptr noundef @.str, ptr noundef @__func__.H5VL__native_file_open, i32 noundef 128, i64 noundef %24, i64 noundef %25, ptr noundef @.str.3)
  br label %27

27:                                               ; preds = %23
  br label %28

28:                                               ; preds = %27
  store i8 1, ptr %13, align 1, !tbaa !15
  %29 = load i8, ptr %13, align 1, !tbaa !15, !range !17, !noundef !18
  %30 = trunc i8 %29 to i1
  %31 = zext i1 %30 to i8
  store i8 %31, ptr %13, align 1, !tbaa !15
  br label %32

32:                                               ; preds = %28
  br label %33

33:                                               ; preds = %32
  br label %34

34:                                               ; preds = %33
  store ptr null, ptr %12, align 8, !tbaa !12
  br label %43

35:                                               ; No predecessors!
  br label %36

36:                                               ; preds = %35
  br label %37

37:                                               ; preds = %36
  br label %38

38:                                               ; preds = %37
  br label %39

39:                                               ; preds = %38, %5
  %40 = load ptr, ptr %11, align 8, !tbaa !13
  %41 = getelementptr inbounds nuw %struct.H5F_t, ptr %40, i32 0, i32 6
  store i8 1, ptr %41, align 8, !tbaa !19
  %42 = load ptr, ptr %11, align 8, !tbaa !13
  store ptr %42, ptr %12, align 8, !tbaa !12
  br label %43

43:                                               ; preds = %39, %34
  %44 = load ptr, ptr %12, align 8, !tbaa !12
  %45 = icmp eq ptr null, %44
  br i1 %45, label %46, label %69

46:                                               ; preds = %43
  %47 = load ptr, ptr %11, align 8, !tbaa !13
  %48 = icmp ne ptr %47, null
  br i1 %48, label %49, label %69

49:                                               ; preds = %46
  %50 = load ptr, ptr %11, align 8, !tbaa !13
  %51 = call i32 @H5F_try_close(ptr noundef %50, ptr noundef null)
  %52 = icmp slt i32 %51, 0
  br i1 %52, label %53, label %69

53:                                               ; preds = %49
  br label %54

54:                                               ; preds = %53
  br label %55

55:                                               ; preds = %54
  br label %56

56:                                               ; preds = %55
  %57 = load i64, ptr @H5E_FILE_g, align 8, !tbaa !10
  %58 = load i64, ptr @H5E_CANTCLOSEFILE_g, align 8, !tbaa !10
  %59 = call i32 (ptr, ptr, i32, i64, i64, ptr, ...) @H5E_printf_stack(ptr noundef @.str, ptr noundef @__func__.H5VL__native_file_open, i32 noundef 135, i64 noundef %57, i64 noundef %58, ptr noundef @.str.2)
  br label %60

60:                                               ; preds = %56
  br label %61

61:                                               ; preds = %60
  store i8 1, ptr %13, align 1, !tbaa !15
  %62 = load i8, ptr %13, align 1, !tbaa !15, !range !17, !noundef !18
  %63 = trunc i8 %62 to i1
  %64 = zext i1 %63 to i8
  store i8 %64, ptr %13, align 1, !tbaa !15
  br label %65

65:                                               ; preds = %61
  br label %66

66:                                               ; preds = %65
  store ptr null, ptr %12, align 8, !tbaa !12
  br label %67

67:                                               ; preds = %66
  br label %68

68:                                               ; preds = %67
  br label %69

69:                                               ; preds = %68, %49, %46, %43
  %70 = load ptr, ptr %12, align 8, !tbaa !12
  call void @llvm.lifetime.end.p0(i64 1, ptr %13) #5
  call void @llvm.lifetime.end.p0(i64 8, ptr %12) #5
  call void @llvm.lifetime.end.p0(i64 8, ptr %11) #5
  ret ptr %70
}