; Function Attrs: nounwind uwtable
define ptr @H5VL__native_file_open(ptr noundef %0, i32 noundef %1, i64 noundef %2, i64 noundef %3, ptr noundef readnone captures(none) %4) local_unnamed_addr #0 {
  %6 = alloca ptr, align 8
  call void @llvm.lifetime.start.p0(i64 8, ptr nonnull %6) #6
  store ptr null, ptr %6, align 8, !tbaa !3
  %7 = load i64, ptr @H5P_LST_FILE_CREATE_ID_g, align 8, !tbaa !16
  %8 = call i32 @H5F_open(i1 noundef zeroext false, ptr noundef nonnull %6, ptr noundef %0, i32 noundef %1, i64 noundef %7, i64 noundef %2) #6
  %9 = icmp slt i32 %8, 0
  br i1 %9, label %12, label %.thread

.thread:                                          ; preds = %5
  %10 = load ptr, ptr %6, align 8, !tbaa !3
  %11 = getelementptr inbounds nuw i8, ptr %10, i64 48
  store i8 1, ptr %11, align 8, !tbaa !8
  br label %24

12:                                               ; preds = %5
  %13 = load i64, ptr @H5E_FILE_g, align 8, !tbaa !16
  %14 = load i64, ptr @H5E_CANTOPENFILE_g, align 8, !tbaa !16
  %15 = call i32 (ptr, ptr, i32, i64, i64, ptr, ...) @H5E_printf_stack(ptr noundef nonnull @.str, ptr noundef nonnull @__func__.H5VL__native_file_open, i32 noundef 128, i64 noundef %13, i64 noundef %14, ptr noundef nonnull @.str.3) #6
  %16 = load ptr, ptr %6, align 8
  %.not = icmp eq ptr %16, null
  br i1 %.not, label %24, label %17

17:                                               ; preds = %12
  %18 = call i32 @H5F_try_close(ptr noundef nonnull %16, ptr noundef null) #6
  %19 = icmp slt i32 %18, 0
  br i1 %19, label %20, label %24

20:                                               ; preds = %17
  %21 = load i64, ptr @H5E_FILE_g, align 8, !tbaa !16
  %22 = load i64, ptr @H5E_CANTCLOSEFILE_g, align 8, !tbaa !16
  %23 = call i32 (ptr, ptr, i32, i64, i64, ptr, ...) @H5E_printf_stack(ptr noundef nonnull @.str, ptr noundef nonnull @__func__.H5VL__native_file_open, i32 noundef 135, i64 noundef %21, i64 noundef %22, ptr noundef nonnull @.str.2) #6
  br label %24

24:                                               ; preds = %.thread, %20, %17, %12
  %.1 = phi ptr [ null, %20 ], [ null, %17 ], [ null, %12 ], [ %10, %.thread ]
  call void @llvm.lifetime.end.p0(i64 8, ptr nonnull %6) #6
  ret ptr %.1
}